target datalayout = "e-m:e-p270:32:32-p271:32:32-p272:64:64-i64:64-i128:128-f80:128-n8:16:32:64-S128"
target triple = "x86_64-pc-linux-gnu"

@hf_imf_display_name = internal global i32 0, align 4
@ett_imf_group = internal global i32 0, align 4
@g_ascii_table = external constant ptr, align 8

; Function Attrs: null_pointer_is_valid sspstrong uwtable
define internal void @dissect_imf_address(ptr noundef %0, i32 noundef %1, i32 noundef %2, ptr noundef %3, ptr noundef %4) #0 {
  %6 = alloca ptr, align 8
  %7 = alloca i32, align 4
  %8 = alloca i32, align 4
  %9 = alloca ptr, align 8
  %10 = alloca ptr, align 8
  %11 = alloca ptr, align 8
  %12 = alloca ptr, align 8
  %13 = alloca i32, align 4
  store ptr %0, ptr %6, align 8
  store i32 %1, ptr %7, align 4
  store i32 %2, ptr %8, align 4
  store ptr %3, ptr %9, align 8
  store ptr %4, ptr %10, align 8
  call void @llvm.lifetime.start.p0(i64 8, ptr %11) #9
  call void @llvm.lifetime.start.p0(i64 8, ptr %12) #9
  call void @llvm.lifetime.start.p0(i64 4, ptr %13) #9
  %14 = load ptr, ptr %6, align 8
  %15 = load i32, ptr %7, align 4
  %16 = load i32, ptr %8, align 4
  %17 = call i32 @tvb_find_uint8(ptr noundef %14, i32 noundef %15, i32 noundef %16, i8 noundef zeroext 58)
  store i32 %17, ptr %13, align 4
  %18 = icmp eq i32 %17, -1
  br i1 %18, label %19, label %25

19:                                               ; preds = %5
  %20 = load ptr, ptr %6, align 8
  %21 = load i32, ptr %7, align 4
  %22 = load i32, ptr %8, align 4
  %23 = load ptr, ptr %9, align 8
  %24 = load ptr, ptr %10, align 8
  call void @dissect_imf_mailbox(ptr noundef %20, i32 noundef %21, i32 noundef %22, ptr noundef %23, ptr noundef %24)
  br label %79

25:                                               ; preds = %5
  %26 = load ptr, ptr %9, align 8
  %27 = load i32, ptr @ett_imf_group, align 4
  %28 = call ptr @proto_item_add_subtree(ptr noundef %26, i32 noundef %27)
  store ptr %28, ptr %11, align 8
  %29 = load ptr, ptr %11, align 8
  %30 = load i32, ptr @hf_imf_display_name, align 4
  %31 = load ptr, ptr %6, align 8
  %32 = load i32, ptr %7, align 4
  %33 = load i32, ptr %13, align 4
  %34 = load i32, ptr %7, align 4
  %35 = sub i32 %33, %34
  %36 = sub i32 %35, 1
  %37 = call ptr @proto_tree_add_item(ptr noundef %29, i32 noundef %30, ptr noundef %31, i32 noundef %32, i32 noundef %36, i32 noundef 0)
  store ptr %37, ptr %12, align 8
  %38 = load i32, ptr %13, align 4
  %39 = add i32 %38, 1
  store i32 %39, ptr %13, align 4
  br label %40

40:                                               ; preds = %59, %25
  %41 = load i32, ptr %13, align 4
  %42 = load i32, ptr %7, align 4
  %43 = load i32, ptr %8, align 4
  %44 = add i32 %42, %43
  %45 = icmp slt i32 %41, %44
  br i1 %45, label %46, label %62

46:                                               ; preds = %40
  %47 = load ptr, ptr @g_ascii_table, align 8
  %48 = load ptr, ptr %6, align 8
  %49 = load i32, ptr %13, align 4
  %50 = call zeroext i8 @tvb_get_uint8(ptr noundef %48, i32 noundef %49)
  %51 = zext i8 %50 to i64
  %52 = getelementptr i16, ptr %47, i64 %51
  %53 = load i16, ptr %52, align 2
  %54 = zext i16 %53 to i32
  %55 = and i32 %54, 256
  %56 = icmp ne i32 %55, 0
  br i1 %56, label %58, label %57

57:                                               ; preds = %46
  br label %62

58:                                               ; preds = %46
  br label %59

59:                                               ; preds = %58
  %60 = load i32, ptr %13, align 4
  %61 = add i32 %60, 1
  store i32 %61, ptr %13, align 4
  br label %40, !llvm.loop !21

62:                                               ; preds = %57, %40
  %63 = load ptr, ptr %6, align 8
  %64 = load i32, ptr %13, align 4
  %65 = call zeroext i8 @tvb_get_uint8(ptr noundef %63, i32 noundef %64)
  %66 = zext i8 %65 to i32
  %67 = icmp ne i32 %66, 59
  br i1 %67, label %68, label %78

68:                                               ; preds = %62
  %69 = load ptr, ptr %6, align 8
  %70 = load i32, ptr %13, align 4
  %71 = load i32, ptr %8, align 4
  %72 = load i32, ptr %13, align 4
  %73 = load i32, ptr %7, align 4
  %74 = sub i32 %72, %73
  %75 = sub i32 %71, %74
  %76 = load ptr, ptr %12, align 8
  %77 = load ptr, ptr %10, align 8
  call void @dissect_imf_mailbox_list(ptr noundef %69, i32 noundef %70, i32 noundef %75, ptr noundef %76, ptr noundef %77)
  br label %78

78:                                               ; preds = %68, %62
  br label %79

79:                                               ; preds = %78, %19
  call void @llvm.lifetime.end.p0(i64 4, ptr %13) #9
  call void @llvm.lifetime.end.p0(i64 8, ptr %12) #9
  call void @llvm.lifetime.end.p0(i64 8, ptr %11) #9
  ret void
}