; Function Attrs: null_pointer_is_valid sspstrong uwtable
define internal void @dissect_imf_address(ptr noundef %0, i32 noundef %1, i32 noundef %2, ptr noundef %3, ptr noundef readnone captures(none) %4) #0 {
  %6 = tail call i32 @tvb_find_uint8(ptr noundef %0, i32 noundef %1, i32 noundef %2, i8 noundef zeroext 58)
  %7 = icmp eq i32 %6, -1
  br i1 %7, label %8, label %9

8:                                                ; preds = %5
  tail call void @dissect_imf_mailbox(ptr noundef %0, i32 noundef %1, i32 noundef %2, ptr noundef %3, ptr poison)
  br label %30

9:                                                ; preds = %5
  %10 = load i32, ptr @ett_imf_group, align 4
  %11 = tail call ptr @proto_item_add_subtree(ptr noundef %3, i32 noundef %10)
  %12 = load i32, ptr @hf_imf_display_name, align 4
  %13 = xor i32 %1, -1
  %14 = add i32 %6, %13
  %15 = tail call ptr @proto_tree_add_item(ptr noundef %11, i32 noundef %12, ptr noundef %0, i32 noundef %1, i32 noundef %14, i32 noundef 0)
  %16 = add i32 %2, %1
  %17 = load ptr, ptr @g_ascii_table, align 8
  br label %18

18:                                               ; preds = %20, %9
  %.0.in = phi i32 [ %6, %9 ], [ %.0, %20 ]
  %.0 = add i32 %.0.in, 1
  %19 = icmp slt i32 %.0, %16
  br i1 %19, label %20, label %26

20:                                               ; preds = %18
  %21 = tail call zeroext i8 @tvb_get_uint8(ptr noundef %0, i32 noundef %.0)
  %22 = zext i8 %21 to i64
  %23 = getelementptr i16, ptr %17, i64 %22
  %24 = load i16, ptr %23, align 2
  %25 = and i16 %24, 256
  %.not = icmp eq i16 %25, 0
  br i1 %.not, label %26, label %18, !llvm.loop !22

26:                                               ; preds = %20, %18
  %27 = tail call zeroext i8 @tvb_get_uint8(ptr noundef %0, i32 noundef %.0)
  %.not30 = icmp eq i8 %27, 59
  br i1 %.not30, label %30, label %28

28:                                               ; preds = %26
  %.0.neg = xor i32 %.0.in, -1
  %29 = add i32 %16, %.0.neg
  tail call void @dissect_imf_mailbox_list(ptr noundef %0, i32 noundef %.0, i32 noundef %29, ptr noundef %15, ptr poison)
  br label %30

30:                                               ; preds = %26, %28, %8
  ret void
}